target datalayout = "e-m:e-p270:32:32-p271:32:32-p272:64:64-i64:64-i128:128-f80:128-n8:16:32:64-S128"
target triple = "x86_64-pc-linux-gnu"

%struct.alloc_state = type { i32, ptr, ptr, i32, i32 }
%struct.repository = type { ptr, ptr, ptr, ptr, ptr, %struct.strmap, %struct.strmap, %struct.repo_path_cache, ptr, ptr, ptr, ptr, %struct.repo_settings, ptr, ptr, ptr, ptr, ptr, ptr, i32, i32, i32, ptr, ptr, i32, i32, i8 }
%struct.strmap = type { %struct.hashmap, ptr, i8 }
%struct.hashmap = type { ptr, ptr, ptr, i32, i32, i32, i32, i8 }
%struct.repo_path_cache = type { ptr, ptr, ptr, ptr, ptr, ptr, ptr }
%struct.repo_settings = type { i32, i32, i32, i32, i32, i32, i32, i32, i32, i32, i32, i32, ptr, i32, i32, i32, i32, i32, i32, i32, i64, i64, i64 }
%struct.parsed_object_pool = type { ptr, ptr, i32, i32, ptr, ptr, ptr, ptr, ptr, ptr, i32, i32, i32, ptr, ptr, i32, i32, ptr }
%struct.object = type { i32, %struct.object_id }
%struct.object_id = type { [32 x i8], i32 }
%struct.tree = type { %struct.object, ptr, i64 }

@.str = private unnamed_addr constant [27 x i8] c"size_t overflow: %lu * %lu\00", align 1

; Function Attrs: inlinehint nounwind uwtable
define internal i64 @st_mult(i64 noundef %0, i64 noundef %1) #4 {
  %3 = alloca i64, align 8
  %4 = alloca i64, align 8
  store i64 %0, ptr %3, align 8, !tbaa !46
  store i64 %1, ptr %4, align 8, !tbaa !46
  %5 = load i64, ptr %3, align 8, !tbaa !46
  %6 = icmp ne i64 %5, 0
  br i1 %6, label %7, label %15

7:                                                ; preds = %2
  %8 = load i64, ptr %4, align 8, !tbaa !46
  %9 = load i64, ptr %3, align 8, !tbaa !46
  %10 = udiv i64 -1, %9
  %11 = icmp ugt i64 %8, %10
  br i1 %11, label %12, label %15

12:                                               ; preds = %7
  %13 = load i64, ptr %3, align 8, !tbaa !46
  %14 = load i64, ptr %4, align 8, !tbaa !46
  call void (ptr, ...) @die(ptr noundef @.str, i64 noundef %13, i64 noundef %14) #8
  unreachable

15:                                               ; preds = %7, %2
  %16 = load i64, ptr %3, align 8, !tbaa !46
  %17 = load i64, ptr %4, align 8, !tbaa !46
  %18 = mul i64 %16, %17
  ret i64 %18
}

; Function Attrs: inlinehint nounwind uwtable
define internal ptr @alloc_node(ptr noundef %0, i64 noundef %1) #4 {
  %3 = alloca ptr, align 8
  %4 = alloca i64, align 8
  %5 = alloca ptr, align 8
  store ptr %0, ptr %3, align 8, !tbaa !4
  store i64 %1, ptr %4, align 8, !tbaa !46
  call void @llvm.lifetime.start.p0(i64 8, ptr %5) #7
  %6 = load ptr, ptr %3, align 8, !tbaa !4
  %7 = getelementptr inbounds nuw %struct.alloc_state, ptr %6, i32 0, i32 0
  %8 = load i32, ptr %7, align 8, !tbaa !47
  %9 = icmp ne i32 %8, 0
  br i1 %9, label %82, label %10

10:                                               ; preds = %2
  %11 = load ptr, ptr %3, align 8, !tbaa !4
  %12 = getelementptr inbounds nuw %struct.alloc_state, ptr %11, i32 0, i32 0
  store i32 1024, ptr %12, align 8, !tbaa !47
  %13 = load i64, ptr %4, align 8, !tbaa !46
  %14 = mul i64 1024, %13
  %15 = call ptr @xmalloc(i64 noundef %14)
  %16 = load ptr, ptr %3, align 8, !tbaa !4
  %17 = getelementptr inbounds nuw %struct.alloc_state, ptr %16, i32 0, i32 1
  store ptr %15, ptr %17, align 8, !tbaa !48
  br label %18

18:                                               ; preds = %10
  %19 = load ptr, ptr %3, align 8, !tbaa !4
  %20 = getelementptr inbounds nuw %struct.alloc_state, ptr %19, i32 0, i32 3
  %21 = load i32, ptr %20, align 8, !tbaa !9
  %22 = add nsw i32 %21, 1
  %23 = load ptr, ptr %3, align 8, !tbaa !4
  %24 = getelementptr inbounds nuw %struct.alloc_state, ptr %23, i32 0, i32 4
  %25 = load i32, ptr %24, align 4, !tbaa !49
  %26 = icmp sgt i32 %22, %25
  br i1 %26, label %27, label %67

27:                                               ; preds = %18
  %28 = load ptr, ptr %3, align 8, !tbaa !4
  %29 = getelementptr inbounds nuw %struct.alloc_state, ptr %28, i32 0, i32 4
  %30 = load i32, ptr %29, align 4, !tbaa !49
  %31 = add nsw i32 %30, 16
  %32 = mul nsw i32 %31, 3
  %33 = sdiv i32 %32, 2
  %34 = load ptr, ptr %3, align 8, !tbaa !4
  %35 = getelementptr inbounds nuw %struct.alloc_state, ptr %34, i32 0, i32 3
  %36 = load i32, ptr %35, align 8, !tbaa !9
  %37 = add nsw i32 %36, 1
  %38 = icmp slt i32 %33, %37
  br i1 %38, label %39, label %46

39:                                               ; preds = %27
  %40 = load ptr, ptr %3, align 8, !tbaa !4
  %41 = getelementptr inbounds nuw %struct.alloc_state, ptr %40, i32 0, i32 3
  %42 = load i32, ptr %41, align 8, !tbaa !9
  %43 = add nsw i32 %42, 1
  %44 = load ptr, ptr %3, align 8, !tbaa !4
  %45 = getelementptr inbounds nuw %struct.alloc_state, ptr %44, i32 0, i32 4
  store i32 %43, ptr %45, align 4, !tbaa !49
  br label %55

46:                                               ; preds = %27
  %47 = load ptr, ptr %3, align 8, !tbaa !4
  %48 = getelementptr inbounds nuw %struct.alloc_state, ptr %47, i32 0, i32 4
  %49 = load i32, ptr %48, align 4, !tbaa !49
  %50 = add nsw i32 %49, 16
  %51 = mul nsw i32 %50, 3
  %52 = sdiv i32 %51, 2
  %53 = load ptr, ptr %3, align 8, !tbaa !4
  %54 = getelementptr inbounds nuw %struct.alloc_state, ptr %53, i32 0, i32 4
  store i32 %52, ptr %54, align 4, !tbaa !49
  br label %55

55:                                               ; preds = %46, %39
  %56 = load ptr, ptr %3, align 8, !tbaa !4
  %57 = getelementptr inbounds nuw %struct.alloc_state, ptr %56, i32 0, i32 2
  %58 = load ptr, ptr %57, align 8, !tbaa !12
  %59 = load ptr, ptr %3, align 8, !tbaa !4
  %60 = getelementptr inbounds nuw %struct.alloc_state, ptr %59, i32 0, i32 4
  %61 = load i32, ptr %60, align 4, !tbaa !49
  %62 = sext i32 %61 to i64
  %63 = call i64 @st_mult(i64 noundef 8, i64 noundef %62)
  %64 = call ptr @xrealloc(ptr noundef %58, i64 noundef %63)
  %65 = load ptr, ptr %3, align 8, !tbaa !4
  %66 = getelementptr inbounds nuw %struct.alloc_state, ptr %65, i32 0, i32 2
  store ptr %64, ptr %66, align 8, !tbaa !12
  br label %67

67:                                               ; preds = %55, %18
  br label %68

68:                                               ; preds = %67
  br label %69

69:                                               ; preds = %68
  %70 = load ptr, ptr %3, align 8, !tbaa !4
  %71 = getelementptr inbounds nuw %struct.alloc_state, ptr %70, i32 0, i32 1
  %72 = load ptr, ptr %71, align 8, !tbaa !48
  %73 = load ptr, ptr %3, align 8, !tbaa !4
  %74 = getelementptr inbounds nuw %struct.alloc_state, ptr %73, i32 0, i32 2
  %75 = load ptr, ptr %74, align 8, !tbaa !12
  %76 = load ptr, ptr %3, align 8, !tbaa !4
  %77 = getelementptr inbounds nuw %struct.alloc_state, ptr %76, i32 0, i32 3
  %78 = load i32, ptr %77, align 8, !tbaa !9
  %79 = add nsw i32 %78, 1
  store i32 %79, ptr %77, align 8, !tbaa !9
  %80 = sext i32 %78 to i64
  %81 = getelementptr inbounds ptr, ptr %75, i64 %80
  store ptr %72, ptr %81, align 8, !tbaa !13
  br label %82

82:                                               ; preds = %69, %2
  %83 = load ptr, ptr %3, align 8, !tbaa !4
  %84 = getelementptr inbounds nuw %struct.alloc_state, ptr %83, i32 0, i32 0
  %85 = load i32, ptr %84, align 8, !tbaa !47
  %86 = add nsw i32 %85, -1
  store i32 %86, ptr %84, align 8, !tbaa !47
  %87 = load ptr, ptr %3, align 8, !tbaa !4
  %88 = getelementptr inbounds nuw %struct.alloc_state, ptr %87, i32 0, i32 1
  %89 = load ptr, ptr %88, align 8, !tbaa !48
  store ptr %89, ptr %5, align 8, !tbaa !13
  %90 = load ptr, ptr %3, align 8, !tbaa !4
  %91 = getelementptr inbounds nuw %struct.alloc_state, ptr %90, i32 0, i32 1
  %92 = load ptr, ptr %91, align 8, !tbaa !48
  %93 = load i64, ptr %4, align 8, !tbaa !46
  %94 = getelementptr inbounds nuw i8, ptr %92, i64 %93
  %95 = load ptr, ptr %3, align 8, !tbaa !4
  %96 = getelementptr inbounds nuw %struct.alloc_state, ptr %95, i32 0, i32 1
  store ptr %94, ptr %96, align 8, !tbaa !48
  %97 = load ptr, ptr %5, align 8, !tbaa !13
  %98 = load i64, ptr %4, align 8, !tbaa !46
  call void @llvm.memset.p0.i64(ptr align 1 %97, i8 0, i64 %98, i1 false)
  %99 = load ptr, ptr %5, align 8, !tbaa !13
  call void @llvm.lifetime.end.p0(i64 8, ptr %5) #7
  ret ptr %99
}

; Function Attrs: nounwind uwtable
define dso_local ptr @alloc_tree_node(ptr noundef %0) #0 {
  %2 = alloca ptr, align 8
  %3 = alloca ptr, align 8
  store ptr %0, ptr %2, align 8, !tbaa !16
  call void @llvm.lifetime.start.p0(i64 8, ptr %3) #7
  %4 = load ptr, ptr %2, align 8, !tbaa !16
  %5 = getelementptr inbounds nuw %struct.repository, ptr %4, i32 0, i32 3
  %6 = load ptr, ptr %5, align 8, !tbaa !18
  %7 = getelementptr inbounds nuw %struct.parsed_object_pool, ptr %6, i32 0, i32 5
  %8 = load ptr, ptr %7, align 8, !tbaa !50
  %9 = call ptr @alloc_node(ptr noundef %8, i64 noundef 56)
  store ptr %9, ptr %3, align 8, !tbaa !51
  %10 = load ptr, ptr %3, align 8, !tbaa !51
  %11 = getelementptr inbounds nuw %struct.tree, ptr %10, i32 0, i32 0
  %12 = load i32, ptr %11, align 8
  %13 = and i32 %12, -15
  %14 = or i32 %13, 4
  store i32 %14, ptr %11, align 8
  %15 = load ptr, ptr %3, align 8, !tbaa !51
  call void @llvm.lifetime.end.p0(i64 8, ptr %3) #7
  ret ptr %15
}